target datalayout = "e-m:e-p270:32:32-p271:32:32-p272:64:64-i64:64-i128:128-f80:128-n8:16:32:64-S128"
target triple = "x86_64-pc-linux-gnu"

%union.anon = type { ptr }
%struct.FFCodec = type { %struct.AVCodec, i32, i32, ptr, ptr, ptr, ptr, %union.anon, ptr, ptr, ptr, ptr, ptr, ptr }
%struct.AVCodec = type { ptr, ptr, i32, i32, i32, i8, ptr, ptr, ptr, ptr, ptr, ptr, ptr, ptr }
%struct.AVCodecContext = type { ptr, i32, i32, ptr, i32, i32, ptr, ptr, ptr, i64, i32, i32, ptr, i32, %struct.AVRational, %struct.AVRational, %struct.AVRational, i32, i32, i32, i32, i32, %struct.AVRational, i32, i32, i32, i32, i32, i32, i32, i32, i32, i32, i32, ptr, ptr, i32, float, float, float, float, float, float, float, float, float, i32, i32, i32, i32, i32, i32, i32, i32, i32, i32, i32, i32, ptr, ptr, ptr, i32, i32, i32, i32, i32, i32, i32, i32, i32, i32, %struct.AVChannelLayout, i32, i32, i32, i32, i32, i32, i32, i32, ptr, i32, i32, i32, float, float, i32, i32, i32, i32, i32, ptr, i64, i64, float, float, i32, i32, ptr, ptr, i32, i32, i32, i32, i32, ptr, ptr, ptr, ptr, i32, i32, [8 x i64], i32, i32, i32, i32, i32, i32, i32, ptr, ptr, i32, i32, i32, i32, i32, i32, i32, i32, i32, i32, ptr, ptr, i32, i32, ptr, ptr, ptr, ptr, i32, i32, i64, i32, i32, i64, ptr, i64, ptr, i32, ptr, i32 }
%struct.AVRational = type { i32, i32 }
%struct.AVChannelLayout = type { i32, i32, %union.anon.0, ptr }
%union.anon.0 = type { i64 }
%struct.TDSCContext = type { ptr, i32, i32, %struct.GetByteContext, ptr, ptr, ptr, ptr, ptr, i64, ptr, i32, i32, i32, i32, i32, i32, i32 }
%struct.GetByteContext = type { ptr, ptr, ptr }
%struct.AVFrame = type { [8 x ptr], [8 x i32], ptr, i32, i32, i32, i32, i32, %struct.AVRational, i64, i64, %struct.AVRational, i32, ptr, i32, i32, [8 x ptr], ptr, i32, ptr, i32, i32, i32, i32, i32, i32, i32, i64, ptr, i32, ptr, ptr, i64, i64, i64, i64, ptr, %struct.AVChannelLayout, i64 }

@.str.2 = private unnamed_addr constant [21 x i8] c"Video size not set.\0A\00", align 1
@ff_mjpeg_decoder = external hidden constant %struct.FFCodec, align 8

; Function Attrs: cold nounwind optsize uwtable
define internal i32 @tdsc_init(ptr noundef %0) #0 {
  %2 = alloca i32, align 4
  %3 = alloca ptr, align 8
  %4 = alloca ptr, align 8
  %5 = alloca i32, align 4
  %6 = alloca i32, align 4
  store ptr %0, ptr %3, align 8, !tbaa !4
  call void @llvm.lifetime.start.p0(i64 8, ptr %4) #9
  %7 = load ptr, ptr %3, align 8, !tbaa !4
  %8 = getelementptr inbounds nuw %struct.AVCodecContext, ptr %7, i32 0, i32 6
  %9 = load ptr, ptr %8, align 8, !tbaa !9
  store ptr %9, ptr %4, align 8, !tbaa !29
  call void @llvm.lifetime.start.p0(i64 4, ptr %5) #9
  %10 = load ptr, ptr %3, align 8, !tbaa !4
  %11 = getelementptr inbounds nuw %struct.AVCodecContext, ptr %10, i32 0, i32 23
  store i32 3, ptr %11, align 8, !tbaa !31
  %12 = load ptr, ptr %3, align 8, !tbaa !4
  %13 = getelementptr inbounds nuw %struct.AVCodecContext, ptr %12, i32 0, i32 18
  %14 = load i32, ptr %13, align 8, !tbaa !32
  %15 = icmp ne i32 %14, 0
  br i1 %15, label %16, label %21

16:                                               ; preds = %1
  %17 = load ptr, ptr %3, align 8, !tbaa !4
  %18 = getelementptr inbounds nuw %struct.AVCodecContext, ptr %17, i32 0, i32 19
  %19 = load i32, ptr %18, align 4, !tbaa !33
  %20 = icmp ne i32 %19, 0
  br i1 %20, label %23, label %21

21:                                               ; preds = %16, %1
  %22 = load ptr, ptr %3, align 8, !tbaa !4
  call void (ptr, i32, ptr, ...) @av_log(ptr noundef %22, i32 noundef 16, ptr noundef @.str.2)
  store i32 -1094995529, ptr %2, align 4
  store i32 1, ptr %6, align 4
  br label %117

23:                                               ; preds = %16
  %24 = load ptr, ptr %3, align 8, !tbaa !4
  %25 = getelementptr inbounds nuw %struct.AVCodecContext, ptr %24, i32 0, i32 18
  %26 = load i32, ptr %25, align 8, !tbaa !32
  %27 = load ptr, ptr %3, align 8, !tbaa !4
  %28 = getelementptr inbounds nuw %struct.AVCodecContext, ptr %27, i32 0, i32 19
  %29 = load i32, ptr %28, align 4, !tbaa !33
  %30 = mul nsw i32 %26, %29
  %31 = mul nsw i32 %30, 4
  %32 = sext i32 %31 to i64
  %33 = load ptr, ptr %4, align 8, !tbaa !29
  %34 = getelementptr inbounds nuw %struct.TDSCContext, ptr %33, i32 0, i32 9
  store i64 %32, ptr %34, align 8, !tbaa !34
  %35 = load ptr, ptr %4, align 8, !tbaa !29
  %36 = getelementptr inbounds nuw %struct.TDSCContext, ptr %35, i32 0, i32 8
  %37 = load ptr, ptr %4, align 8, !tbaa !29
  %38 = getelementptr inbounds nuw %struct.TDSCContext, ptr %37, i32 0, i32 9
  %39 = load i64, ptr %38, align 8, !tbaa !34
  %40 = call i32 @av_reallocp(ptr noundef %36, i64 noundef %39)
  store i32 %40, ptr %5, align 4, !tbaa !39
  %41 = load i32, ptr %5, align 4, !tbaa !39
  %42 = icmp slt i32 %41, 0
  br i1 %42, label %43, label %45

43:                                               ; preds = %23
  %44 = load i32, ptr %5, align 4, !tbaa !39
  store i32 %44, ptr %2, align 4
  store i32 1, ptr %6, align 4
  br label %117

45:                                               ; preds = %23
  %46 = call ptr @av_frame_alloc()
  %47 = load ptr, ptr %4, align 8, !tbaa !29
  %48 = getelementptr inbounds nuw %struct.TDSCContext, ptr %47, i32 0, i32 4
  store ptr %46, ptr %48, align 8, !tbaa !40
  %49 = call ptr @av_frame_alloc()
  %50 = load ptr, ptr %4, align 8, !tbaa !29
  %51 = getelementptr inbounds nuw %struct.TDSCContext, ptr %50, i32 0, i32 6
  store ptr %49, ptr %51, align 8, !tbaa !41
  %52 = call ptr @av_packet_alloc()
  %53 = load ptr, ptr %4, align 8, !tbaa !29
  %54 = getelementptr inbounds nuw %struct.TDSCContext, ptr %53, i32 0, i32 5
  store ptr %52, ptr %54, align 8, !tbaa !42
  %55 = load ptr, ptr %4, align 8, !tbaa !29
  %56 = getelementptr inbounds nuw %struct.TDSCContext, ptr %55, i32 0, i32 4
  %57 = load ptr, ptr %56, align 8, !tbaa !40
  %58 = icmp ne ptr %57, null
  br i1 %58, label %59, label %69

59:                                               ; preds = %45
  %60 = load ptr, ptr %4, align 8, !tbaa !29
  %61 = getelementptr inbounds nuw %struct.TDSCContext, ptr %60, i32 0, i32 6
  %62 = load ptr, ptr %61, align 8, !tbaa !41
  %63 = icmp ne ptr %62, null
  br i1 %63, label %64, label %69

64:                                               ; preds = %59
  %65 = load ptr, ptr %4, align 8, !tbaa !29
  %66 = getelementptr inbounds nuw %struct.TDSCContext, ptr %65, i32 0, i32 5
  %67 = load ptr, ptr %66, align 8, !tbaa !42
  %68 = icmp ne ptr %67, null
  br i1 %68, label %70, label %69

69:                                               ; preds = %64, %59, %45
  store i32 -12, ptr %2, align 4
  store i32 1, ptr %6, align 4
  br label %117

70:                                               ; preds = %64
  %71 = call ptr @avcodec_alloc_context3(ptr noundef @ff_mjpeg_decoder)
  %72 = load ptr, ptr %4, align 8, !tbaa !29
  %73 = getelementptr inbounds nuw %struct.TDSCContext, ptr %72, i32 0, i32 0
  store ptr %71, ptr %73, align 8, !tbaa !43
  %74 = load ptr, ptr %4, align 8, !tbaa !29
  %75 = getelementptr inbounds nuw %struct.TDSCContext, ptr %74, i32 0, i32 0
  %76 = load ptr, ptr %75, align 8, !tbaa !43
  %77 = icmp ne ptr %76, null
  br i1 %77, label %79, label %78

78:                                               ; preds = %70
  store i32 -12, ptr %2, align 4
  store i32 1, ptr %6, align 4
  br label %117

79:                                               ; preds = %70
  %80 = load ptr, ptr %3, align 8, !tbaa !4
  %81 = getelementptr inbounds nuw %struct.AVCodecContext, ptr %80, i32 0, i32 10
  %82 = load i32, ptr %81, align 8, !tbaa !44
  %83 = load ptr, ptr %4, align 8, !tbaa !29
  %84 = getelementptr inbounds nuw %struct.TDSCContext, ptr %83, i32 0, i32 0
  %85 = load ptr, ptr %84, align 8, !tbaa !43
  %86 = getelementptr inbounds nuw %struct.AVCodecContext, ptr %85, i32 0, i32 10
  store i32 %82, ptr %86, align 8, !tbaa !44
  %87 = load ptr, ptr %3, align 8, !tbaa !4
  %88 = getelementptr inbounds nuw %struct.AVCodecContext, ptr %87, i32 0, i32 11
  %89 = load i32, ptr %88, align 4, !tbaa !45
  %90 = load ptr, ptr %4, align 8, !tbaa !29
  %91 = getelementptr inbounds nuw %struct.TDSCContext, ptr %90, i32 0, i32 0
  %92 = load ptr, ptr %91, align 8, !tbaa !43
  %93 = getelementptr inbounds nuw %struct.AVCodecContext, ptr %92, i32 0, i32 11
  store i32 %89, ptr %93, align 4, !tbaa !45
  %94 = load ptr, ptr %3, align 8, !tbaa !4
  %95 = getelementptr inbounds nuw %struct.AVCodecContext, ptr %94, i32 0, i32 113
  %96 = load i32, ptr %95, align 4, !tbaa !46
  %97 = load ptr, ptr %4, align 8, !tbaa !29
  %98 = getelementptr inbounds nuw %struct.TDSCContext, ptr %97, i32 0, i32 0
  %99 = load ptr, ptr %98, align 8, !tbaa !43
  %100 = getelementptr inbounds nuw %struct.AVCodecContext, ptr %99, i32 0, i32 113
  store i32 %96, ptr %100, align 4, !tbaa !46
  %101 = load ptr, ptr %4, align 8, !tbaa !29
  %102 = getelementptr inbounds nuw %struct.TDSCContext, ptr %101, i32 0, i32 0
  %103 = load ptr, ptr %102, align 8, !tbaa !43
  %104 = call i32 @avcodec_open2(ptr noundef %103, ptr noundef null, ptr noundef null)
  store i32 %104, ptr %5, align 4, !tbaa !39
  %105 = load i32, ptr %5, align 4, !tbaa !39
  %106 = icmp slt i32 %105, 0
  br i1 %106, label %107, label %109

107:                                              ; preds = %79
  %108 = load i32, ptr %5, align 4, !tbaa !39
  store i32 %108, ptr %2, align 4
  store i32 1, ptr %6, align 4
  br label %117

109:                                              ; preds = %79
  %110 = load ptr, ptr %3, align 8, !tbaa !4
  %111 = getelementptr inbounds nuw %struct.AVCodecContext, ptr %110, i32 0, i32 23
  %112 = load i32, ptr %111, align 8, !tbaa !31
  %113 = load ptr, ptr %4, align 8, !tbaa !29
  %114 = getelementptr inbounds nuw %struct.TDSCContext, ptr %113, i32 0, i32 4
  %115 = load ptr, ptr %114, align 8, !tbaa !40
  %116 = getelementptr inbounds nuw %struct.AVFrame, ptr %115, i32 0, i32 6
  store i32 %112, ptr %116, align 4, !tbaa !47
  store i32 0, ptr %2, align 4
  store i32 1, ptr %6, align 4
  br label %117

117:                                              ; preds = %109, %107, %78, %69, %43, %21
  call void @llvm.lifetime.end.p0(i64 4, ptr %5) #9
  call void @llvm.lifetime.end.p0(i64 8, ptr %4) #9
  %118 = load i32, ptr %2, align 4
  ret i32 %118
}