; Function Attrs: cold nounwind optsize uwtable
define internal range(i32 -2147483648, 1) i32 @tdsc_init(ptr noundef initializes((136, 140)) %0) #0 {
  %2 = getelementptr inbounds nuw i8, ptr %0, i64 32
  %3 = load ptr, ptr %2, align 8, !tbaa !4
  %4 = getelementptr inbounds nuw i8, ptr %0, i64 136
  store i32 3, ptr %4, align 8, !tbaa !27
  %5 = getelementptr inbounds nuw i8, ptr %0, i64 112
  %6 = load i32, ptr %5, align 8, !tbaa !28
  %.not = icmp eq i32 %6, 0
  br i1 %.not, label %10, label %7

7:                                                ; preds = %1
  %8 = getelementptr inbounds nuw i8, ptr %0, i64 116
  %9 = load i32, ptr %8, align 4, !tbaa !29
  %.not36 = icmp eq i32 %9, 0
  br i1 %.not36, label %10, label %11

10:                                               ; preds = %7, %1
  tail call void (ptr, i32, ptr, ...) @av_log(ptr noundef nonnull %0, i32 noundef 16, ptr noundef nonnull @.str.2) #7
  br label %47

11:                                               ; preds = %7
  %12 = shl i32 %6, 2
  %13 = mul i32 %12, %9
  %14 = sext i32 %13 to i64
  %15 = getelementptr inbounds nuw i8, ptr %3, i64 80
  store i64 %14, ptr %15, align 8, !tbaa !30
  %16 = getelementptr inbounds nuw i8, ptr %3, i64 72
  %17 = tail call i32 @av_reallocp(ptr noundef nonnull %16, i64 noundef %14) #7
  %18 = icmp slt i32 %17, 0
  br i1 %18, label %47, label %19

19:                                               ; preds = %11
  %20 = tail call ptr @av_frame_alloc() #7
  %21 = getelementptr inbounds nuw i8, ptr %3, i64 40
  store ptr %20, ptr %21, align 8, !tbaa !36
  %22 = tail call ptr @av_frame_alloc() #7
  %23 = getelementptr inbounds nuw i8, ptr %3, i64 56
  store ptr %22, ptr %23, align 8, !tbaa !37
  %24 = tail call ptr @av_packet_alloc() #7
  %25 = getelementptr inbounds nuw i8, ptr %3, i64 48
  store ptr %24, ptr %25, align 8, !tbaa !38
  %26 = load ptr, ptr %21, align 8, !tbaa !36
  %.not37 = icmp eq ptr %26, null
  br i1 %.not37, label %47, label %27

27:                                               ; preds = %19
  %28 = load ptr, ptr %23, align 8, !tbaa !37
  %.not38 = icmp eq ptr %28, null
  %.not39 = icmp eq ptr %24, null
  %or.cond = select i1 %.not38, i1 true, i1 %.not39
  br i1 %or.cond, label %47, label %29

29:                                               ; preds = %27
  %30 = tail call ptr @avcodec_alloc_context3(ptr noundef nonnull @ff_mjpeg_decoder) #7
  store ptr %30, ptr %3, align 8, !tbaa !39
  %.not40 = icmp eq ptr %30, null
  br i1 %.not40, label %47, label %31

31:                                               ; preds = %29
  %32 = getelementptr inbounds nuw i8, ptr %0, i64 64
  %33 = load i32, ptr %32, align 8, !tbaa !40
  %34 = getelementptr inbounds nuw i8, ptr %30, i64 64
  store i32 %33, ptr %34, align 8, !tbaa !40
  %35 = getelementptr inbounds nuw i8, ptr %0, i64 68
  %36 = load i32, ptr %35, align 4, !tbaa !41
  %37 = getelementptr inbounds nuw i8, ptr %30, i64 68
  store i32 %36, ptr %37, align 4, !tbaa !41
  %38 = getelementptr inbounds nuw i8, ptr %0, i64 644
  %39 = load i32, ptr %38, align 4, !tbaa !42
  %40 = getelementptr inbounds nuw i8, ptr %30, i64 644
  store i32 %39, ptr %40, align 4, !tbaa !42
  %41 = tail call i32 @avcodec_open2(ptr noundef nonnull %30, ptr noundef null, ptr noundef null) #7
  %42 = icmp slt i32 %41, 0
  br i1 %42, label %47, label %43

43:                                               ; preds = %31
  %44 = load i32, ptr %4, align 8, !tbaa !27
  %45 = load ptr, ptr %21, align 8, !tbaa !36
  %46 = getelementptr inbounds nuw i8, ptr %45, i64 116
  store i32 %44, ptr %46, align 4, !tbaa !43
  br label %47

47:                                               ; preds = %31, %29, %19, %27, %11, %43, %10
  %.0 = phi i32 [ 0, %43 ], [ -1094995529, %10 ], [ %17, %11 ], [ -12, %27 ], [ -12, %19 ], [ -12, %29 ], [ %41, %31 ]
  ret i32 %.0
}